target datalayout = "e-m:e-p270:32:32-p271:32:32-p272:64:64-i64:64-i128:128-f80:128-n8:16:32:64-S128"
target triple = "x86_64-pc-linux-gnu"

%struct.H5VL_connector_prop_t = type { i64, ptr }

@.str.2 = private unnamed_addr constant [101 x i8] c"generated/home/dtcxzyw/WorkSpace/Projects/compilers/llvm-opt-benchmark/bench/hdf5/hdf5/src/H5VLint.c\00", align 1
@H5E_VOL_g = external global i64, align 8
@H5E_CANTGET_g = external global i64, align 8
@H5E_PLIST_g = external global i64, align 8
@H5E_BADTYPE_g = external global i64, align 8
@.str.36 = private unnamed_addr constant [23 x i8] c"not a VOL connector ID\00", align 1
@__func__.H5VL_get_cap_flags = private unnamed_addr constant [19 x i8] c"H5VL_get_cap_flags\00", align 1
@.str.101 = private unnamed_addr constant [41 x i8] c"can't query connector's capability flags\00", align 1
@.str.102 = private unnamed_addr constant [22 x i8] c"connector ID not set?\00", align 1

; Function Attrs: nounwind uwtable
define i32 @H5VL_get_cap_flags(ptr noundef %0, ptr noundef %1) #0 {
  %3 = alloca ptr, align 8
  %4 = alloca ptr, align 8
  %5 = alloca i32, align 4
  %6 = alloca i8, align 1
  %7 = alloca ptr, align 8
  store ptr %0, ptr %3, align 8
  store ptr %1, ptr %4, align 8
  store i32 0, ptr %5, align 4
  store i8 0, ptr %6, align 1
  %8 = load ptr, ptr %3, align 8
  %9 = getelementptr inbounds %struct.H5VL_connector_prop_t, ptr %8, i32 0, i32 0
  %10 = load i64, ptr %9, align 8
  %11 = icmp sgt i64 %10, 0
  br i1 %11, label %12, label %57

12:                                               ; preds = %2
  %13 = load ptr, ptr %3, align 8
  %14 = getelementptr inbounds %struct.H5VL_connector_prop_t, ptr %13, i32 0, i32 0
  %15 = load i64, ptr %14, align 8
  %16 = call ptr @H5I_object(i64 noundef %15)
  store ptr %16, ptr %7, align 8
  %17 = icmp eq ptr null, %16
  br i1 %17, label %18, label %33

18:                                               ; preds = %12
  br label %19

19:                                               ; preds = %18
  br label %20

20:                                               ; preds = %19
  br label %21

21:                                               ; preds = %20
  %22 = load i64, ptr @H5E_PLIST_g, align 8
  %23 = load i64, ptr @H5E_BADTYPE_g, align 8
  %24 = call i32 (ptr, ptr, i32, i64, i64, ptr, ...) @H5E_printf_stack(ptr noundef @.str.2, ptr noundef @__func__.H5VL_get_cap_flags, i32 noundef 2804, i64 noundef %22, i64 noundef %23, ptr noundef @.str.36)
  br label %25

25:                                               ; preds = %21
  store i8 1, ptr %6, align 1
  %26 = load i8, ptr %6, align 1
  %27 = trunc i8 %26 to i1
  %28 = zext i1 %27 to i8
  store i8 %28, ptr %6, align 1
  br label %29

29:                                               ; preds = %25
  br label %30

30:                                               ; preds = %29
  store i32 -1, ptr %5, align 4
  br label %73

31:                                               ; No predecessors!
  br label %32

32:                                               ; preds = %31
  br label %33

33:                                               ; preds = %32, %12
  %34 = load ptr, ptr %3, align 8
  %35 = getelementptr inbounds %struct.H5VL_connector_prop_t, ptr %34, i32 0, i32 1
  %36 = load ptr, ptr %35, align 8
  %37 = load ptr, ptr %7, align 8
  %38 = load ptr, ptr %4, align 8
  %39 = call i32 @H5VL_introspect_get_cap_flags(ptr noundef %36, ptr noundef %37, ptr noundef %38)
  %40 = icmp slt i32 %39, 0
  br i1 %40, label %41, label %56

41:                                               ; preds = %33
  br label %42

42:                                               ; preds = %41
  br label %43

43:                                               ; preds = %42
  br label %44

44:                                               ; preds = %43
  %45 = load i64, ptr @H5E_VOL_g, align 8
  %46 = load i64, ptr @H5E_CANTGET_g, align 8
  %47 = call i32 (ptr, ptr, i32, i64, i64, ptr, ...) @H5E_printf_stack(ptr noundef @.str.2, ptr noundef @__func__.H5VL_get_cap_flags, i32 noundef 2808, i64 noundef %45, i64 noundef %46, ptr noundef @.str.101)
  br label %48

48:                                               ; preds = %44
  store i8 1, ptr %6, align 1
  %49 = load i8, ptr %6, align 1
  %50 = trunc i8 %49 to i1
  %51 = zext i1 %50 to i8
  store i8 %51, ptr %6, align 1
  br label %52

52:                                               ; preds = %48
  br label %53

53:                                               ; preds = %52
  store i32 -1, ptr %5, align 4
  br label %73

54:                                               ; No predecessors!
  br label %55

55:                                               ; preds = %54
  br label %56

56:                                               ; preds = %55, %33
  br label %72

57:                                               ; preds = %2
  br label %58

58:                                               ; preds = %57
  br label %59

59:                                               ; preds = %58
  br label %60

60:                                               ; preds = %59
  %61 = load i64, ptr @H5E_VOL_g, align 8
  %62 = load i64, ptr @H5E_CANTGET_g, align 8
  %63 = call i32 (ptr, ptr, i32, i64, i64, ptr, ...) @H5E_printf_stack(ptr noundef @.str.2, ptr noundef @__func__.H5VL_get_cap_flags, i32 noundef 2811, i64 noundef %61, i64 noundef %62, ptr noundef @.str.102)
  br label %64

64:                                               ; preds = %60
  store i8 1, ptr %6, align 1
  %65 = load i8, ptr %6, align 1
  %66 = trunc i8 %65 to i1
  %67 = zext i1 %66 to i8
  store i8 %67, ptr %6, align 1
  br label %68

68:                                               ; preds = %64
  br label %69

69:                                               ; preds = %68
  store i32 -1, ptr %5, align 4
  br label %73

70:                                               ; No predecessors!
  br label %71

71:                                               ; preds = %70
  br label %72

72:                                               ; preds = %71, %56
  br label %73

73:                                               ; preds = %72, %69, %53, %30
  %74 = load i32, ptr %5, align 4
  ret i32 %74
}