; Function Attrs: nounwind uwtable
define range(i32 -1, 1) i32 @H5VL_get_cap_flags(ptr nocapture noundef readonly %0, ptr noundef %1) local_unnamed_addr #0 {
  %3 = load i64, ptr %0, align 8
  %4 = icmp sgt i64 %3, 0
  br i1 %4, label %5, label %21

5:                                                ; preds = %2
  %6 = tail call ptr @H5I_object(i64 noundef %3) #10
  %7 = icmp eq ptr %6, null
  br i1 %7, label %8, label %12

8:                                                ; preds = %5
  %9 = load i64, ptr @H5E_PLIST_g, align 8
  %10 = load i64, ptr @H5E_BADTYPE_g, align 8
  %11 = tail call i32 (ptr, ptr, i32, i64, i64, ptr, ...) @H5E_printf_stack(ptr noundef nonnull @.str.2, ptr noundef nonnull @__func__.H5VL_get_cap_flags, i32 noundef 2804, i64 noundef %9, i64 noundef %10, ptr noundef nonnull @.str.36) #10
  br label %25

12:                                               ; preds = %5
  %13 = getelementptr inbounds i8, ptr %0, i64 8
  %14 = load ptr, ptr %13, align 8
  %15 = tail call i32 @H5VL_introspect_get_cap_flags(ptr noundef %14, ptr noundef nonnull %6, ptr noundef %1) #10
  %16 = icmp slt i32 %15, 0
  br i1 %16, label %17, label %25

17:                                               ; preds = %12
  %18 = load i64, ptr @H5E_VOL_g, align 8
  %19 = load i64, ptr @H5E_CANTGET_g, align 8
  %20 = tail call i32 (ptr, ptr, i32, i64, i64, ptr, ...) @H5E_printf_stack(ptr noundef nonnull @.str.2, ptr noundef nonnull @__func__.H5VL_get_cap_flags, i32 noundef 2808, i64 noundef %18, i64 noundef %19, ptr noundef nonnull @.str.101) #10
  br label %25

21:                                               ; preds = %2
  %22 = load i64, ptr @H5E_VOL_g, align 8
  %23 = load i64, ptr @H5E_CANTGET_g, align 8
  %24 = tail call i32 (ptr, ptr, i32, i64, i64, ptr, ...) @H5E_printf_stack(ptr noundef nonnull @.str.2, ptr noundef nonnull @__func__.H5VL_get_cap_flags, i32 noundef 2811, i64 noundef %22, i64 noundef %23, ptr noundef nonnull @.str.102) #10
  br label %25

25:                                               ; preds = %12, %21, %17, %8
  %.0 = phi i32 [ -1, %8 ], [ -1, %17 ], [ 0, %12 ], [ -1, %21 ]
  ret i32 %.0
}